target datalayout = "e-m:e-p270:32:32-p271:32:32-p272:64:64-i64:64-f80:128-n8:16:32:64-S128"
target triple = "x86_64-pc-linux-gnu"

@.str = private unnamed_addr constant [3 x i8] c"%d\00", align 1

; Function Attrs: noinline nounwind uwtable
define dso_local void @turn(i8* %0) #0 {
  %2 = alloca i8*, align 8
  %3 = alloca i32, align 4
  %4 = alloca i32, align 4
  %5 = alloca i32, align 4
  store i8* %0, i8** %2, align 8
  %6 = load i8*, i8** %2, align 8
  %7 = call i64 @strlen(i8* %6) #4
  %8 = trunc i64 %7 to i32
  store i32 %8, i32* %3, align 4
  store i32 0, i32* %4, align 4
  br label %9

9:                                                ; preds = %43, %1
  %10 = load i32, i32* %4, align 4
  %11 = load i32, i32* %3, align 4
  %12 = sub nsw i32 %11, 1
  %13 = sdiv i32 %12, 2
  %14 = icmp sle i32 %10, %13
  br i1 %14, label %15, label %46

15:                                               ; preds = %9
  %16 = load i8*, i8** %2, align 8
  %17 = load i32, i32* %4, align 4
  %18 = sext i32 %17 to i64
  %19 = getelementptr inbounds i8, i8* %16, i64 %18
  %20 = load i8, i8* %19, align 1
  %21 = sext i8 %20 to i32
  store i32 %21, i32* %5, align 4
  %22 = load i8*, i8** %2, align 8
  %23 = load i32, i32* %3, align 4
  %24 = load i32, i32* %4, align 4
  %25 = sub nsw i32 %23, %24
  %26 = sub nsw i32 %25, 1
  %27 = sext i32 %26 to i64
  %28 = getelementptr inbounds i8, i8* %22, i64 %27
  %29 = load i8, i8* %28, align 1
  %30 = load i8*, i8** %2, align 8
  %31 = load i32, i32* %4, align 4
  %32 = sext i32 %31 to i64
  %33 = getelementptr inbounds i8, i8* %30, i64 %32
  store i8 %29, i8* %33, align 1
  %34 = load i32, i32* %5, align 4
  %35 = trunc i32 %34 to i8
  %36 = load i8*, i8** %2, align 8
  %37 = load i32, i32* %3, align 4
  %38 = load i32, i32* %4, align 4
  %39 = sub nsw i32 %37, %38
  %40 = sub nsw i32 %39, 1
  %41 = sext i32 %40 to i64
  %42 = getelementptr inbounds i8, i8* %36, i64 %41
  store i8 %35, i8* %42, align 1
  br label %43

43:                                               ; preds = %15
  %44 = load i32, i32* %4, align 4
  %45 = add nsw i32 %44, 1
  store i32 %45, i32* %4, align 4
  br label %9

46:                                               ; preds = %9
  ret void
}

; Function Attrs: noinline nounwind uwtable
define dso_local i32 @min(i32 %0, i32 %1) #0 {
  %3 = alloca i32, align 4
  %4 = alloca i32, align 4
  %5 = alloca i32, align 4
  store i32 %0, i32* %3, align 4
  store i32 %1, i32* %4, align 4
  %6 = load i32, i32* %3, align 4
  %7 = load i32, i32* %4, align 4
  %8 = icmp sge i32 %6, %7
  br i1 %8, label %9, label %11

9:                                                ; preds = %2
  %10 = load i32, i32* %4, align 4
  store i32 %10, i32* %5, align 4
  br label %13

11:                                               ; preds = %2
  %12 = load i32, i32* %3, align 4
  store i32 %12, i32* %5, align 4
  br label %13

13:                                               ; preds = %11, %9
  %14 = load i32, i32* %5, align 4
  ret i32 %14
}

; Function Attrs: noinline nounwind uwtable
define dso_local void @miner(i8* %0, i8* %1, i8* %2) #0 {
  %4 = alloca i8*, align 8
  %5 = alloca i8*, align 8
  %6 = alloca i8*, align 8
  %7 = alloca i32, align 4
  %8 = alloca i32, align 4
  %9 = alloca i32, align 4
  %10 = alloca i32, align 4
  store i8* %0, i8** %4, align 8
  store i8* %1, i8** %5, align 8
  store i8* %2, i8** %6, align 8
  %11 = load i8*, i8** %4, align 8
  %12 = call i64 @strlen(i8* %11) #4
  %13 = trunc i64 %12 to i32
  store i32 %13, i32* %9, align 4
  %14 = load i8*, i8** %5, align 8
  %15 = call i64 @strlen(i8* %14) #4
  %16 = trunc i64 %15 to i32
  store i32 %16, i32* %10, align 4
  %17 = load i32, i32* %9, align 4
  %18 = load i32, i32* %10, align 4
  %19 = call i32 @min(i32 %17, i32 %18)
  store i32 %19, i32* %7, align 4
  store i32 0, i32* %8, align 4
  br label %20

20:                                               ; preds = %94, %3
  %21 = load i32, i32* %8, align 4
  %22 = load i32, i32* %7, align 4
  %23 = icmp slt i32 %21, %22
  br i1 %23, label %24, label %97

24:                                               ; preds = %20
  %25 = load i8*, i8** %4, align 8
  %26 = load i32, i32* %8, align 4
  %27 = sext i32 %26 to i64
  %28 = getelementptr inbounds i8, i8* %25, i64 %27
  %29 = load i8, i8* %28, align 1
  %30 = sext i8 %29 to i32
  %31 = load i8*, i8** %5, align 8
  %32 = load i32, i32* %8, align 4
  %33 = sext i32 %32 to i64
  %34 = getelementptr inbounds i8, i8* %31, i64 %33
  %35 = load i8, i8* %34, align 1
  %36 = sext i8 %35 to i32
  %37 = icmp sge i32 %30, %36
  br i1 %37, label %38, label %58

38:                                               ; preds = %24
  %39 = load i8*, i8** %4, align 8
  %40 = load i32, i32* %8, align 4
  %41 = sext i32 %40 to i64
  %42 = getelementptr inbounds i8, i8* %39, i64 %41
  %43 = load i8, i8* %42, align 1
  %44 = sext i8 %43 to i32
  %45 = load i8*, i8** %5, align 8
  %46 = load i32, i32* %8, align 4
  %47 = sext i32 %46 to i64
  %48 = getelementptr inbounds i8, i8* %45, i64 %47
  %49 = load i8, i8* %48, align 1
  %50 = sext i8 %49 to i32
  %51 = sub nsw i32 %44, %50
  %52 = add nsw i32 %51, 48
  %53 = trunc i32 %52 to i8
  %54 = load i8*, i8** %6, align 8
  %55 = load i32, i32* %8, align 4
  %56 = sext i32 %55 to i64
  %57 = getelementptr inbounds i8, i8* %54, i64 %56
  store i8 %53, i8* %57, align 1
  br label %93

58:                                               ; preds = %24
  %59 = load i8*, i8** %4, align 8
  %60 = load i32, i32* %8, align 4
  %61 = sext i32 %60 to i64
  %62 = getelementptr inbounds i8, i8* %59, i64 %61
  %63 = load i8, i8* %62, align 1
  %64 = sext i8 %63 to i32
  %65 = add nsw i32 %64, 10
  %66 = load i8*, i8** %5, align 8
  %67 = load i32, i32* %8, align 4
  %68 = sext i32 %67 to i64
  %69 = getelementptr inbounds i8, i8* %66, i64 %68
  %70 = load i8, i8* %69, align 1
  %71 = sext i8 %70 to i32
  %72 = sub nsw i32 %65, %71
  %73 = add nsw i32 %72, 48
  %74 = trunc i32 %73 to i8
  %75 = load i8*, i8** %6, align 8
  %76 = load i32, i32* %8, align 4
  %77 = sext i32 %76 to i64
  %78 = getelementptr inbounds i8, i8* %75, i64 %77
  store i8 %74, i8* %78, align 1
  %79 = load i8*, i8** %4, align 8
  %80 = load i32, i32* %8, align 4
  %81 = add nsw i32 %80, 1
  %82 = sext i32 %81 to i64
  %83 = getelementptr inbounds i8, i8* %79, i64 %82
  %84 = load i8, i8* %83, align 1
  %85 = add i8 %84, -1
  store i8 %85, i8* %83, align 1
  %86 = load i8*, i8** %6, align 8
  %87 = load i32, i32* %8, align 4
  %88 = add nsw i32 %87, 1
  %89 = sext i32 %88 to i64
  %90 = getelementptr inbounds i8, i8* %86, i64 %89
  %91 = load i8, i8* %90, align 1
  %92 = add i8 %91, -1
  store i8 %92, i8* %90, align 1
  br label %93

93:                                               ; preds = %58, %38
  br label %94

94:                                               ; preds = %93
  %95 = load i32, i32* %8, align 4
  %96 = add nsw i32 %95, 1
  store i32 %96, i32* %8, align 4
  br label %20

97:                                               ; preds = %20
  ret void
}

; Function Attrs: noinline nounwind uwtable
define dso_local void @main() #0 {
  %1 = alloca [100 x i8], align 16
  %2 = alloca [100 x i8], align 16
  %3 = alloca [2 x i8], align 1
  %4 = alloca [100 x i8], align 16
  %5 = alloca i32, align 4
  %6 = alloca i32, align 4
  %7 = alloca i32, align 4
  %8 = call i32 (i8*, ...) @__isoc99_scanf(i8* getelementptr inbounds ([3 x i8], [3 x i8]* @.str, i64 0, i64 0), i32* %5)
  store i32 1, i32* %6, align 4
  br label %9

9:                                                ; preds = %31, %0
  %10 = load i32, i32* %6, align 4
  %11 = load i32, i32* %5, align 4
  %12 = icmp sle i32 %10, %11
  br i1 %12, label %13, label %34

13:                                               ; preds = %9
  %14 = getelementptr inbounds [2 x i8], [2 x i8]* %3, i64 0, i64 0
  %15 = call i32 (i8*, ...) bitcast (i32 (...)* @gets to i32 (i8*, ...)*)(i8* %14)
  %16 = getelementptr inbounds [100 x i8], [100 x i8]* %1, i64 0, i64 0
  %17 = call i32 (i8*, ...) bitcast (i32 (...)* @gets to i32 (i8*, ...)*)(i8* %16)
  %18 = getelementptr inbounds [100 x i8], [100 x i8]* %2, i64 0, i64 0
  %19 = call i32 (i8*, ...) bitcast (i32 (...)* @gets to i32 (i8*, ...)*)(i8* %18)
  %20 = getelementptr inbounds [100 x i8], [100 x i8]* %1, i64 0, i64 0
  call void @turn(i8* %20)
  %21 = getelementptr inbounds [100 x i8], [100 x i8]* %2, i64 0, i64 0
  call void @turn(i8* %21)
  %22 = getelementptr inbounds [100 x i8], [100 x i8]* %4, i64 0, i64 0
  %23 = getelementptr inbounds [100 x i8], [100 x i8]* %1, i64 0, i64 0
  %24 = call i8* @strcpy(i8* %22, i8* %23) #5
  %25 = getelementptr inbounds [100 x i8], [100 x i8]* %1, i64 0, i64 0
  %26 = getelementptr inbounds [100 x i8], [100 x i8]* %2, i64 0, i64 0
  %27 = getelementptr inbounds [100 x i8], [100 x i8]* %4, i64 0, i64 0
  call void @miner(i8* %25, i8* %26, i8* %27)
  %28 = getelementptr inbounds [100 x i8], [100 x i8]* %4, i64 0, i64 0
  call void @turn(i8* %28)
  %29 = getelementptr inbounds [100 x i8], [100 x i8]* %4, i64 0, i64 0
  %30 = call i32 @puts(i8* %29)
  br label %31

31:                                               ; preds = %13
  %32 = load i32, i32* %6, align 4
  %33 = add nsw i32 %32, 1
  store i32 %33, i32* %6, align 4
  br label %9

34:                                               ; preds = %9
  ret void
}